target datalayout = "e-m:e-p270:32:32-p271:32:32-p272:64:64-i64:64-i128:128-f80:128-n8:16:32:64-S128"
target triple = "x86_64-pc-linux-gnu"

%struct.EnableTimeoutParams = type { i32, i32, i32, i64 }

@alarm_enabled = internal global i32 0, align 4
@.str.1 = private unnamed_addr constant [10 x i8] c"timeout.c\00", align 1
@.str.2 = private unnamed_addr constant [29 x i8] c"unrecognized timeout type %d\00", align 1
@__func__.enable_timeouts = private unnamed_addr constant [16 x i8] c"enable_timeouts\00", align 1

; Function Attrs: nounwind uwtable
define dso_local void @enable_timeouts(ptr noundef %0, i32 noundef %1) #0 {
  %3 = alloca ptr, align 8
  %4 = alloca i32, align 4
  %5 = alloca i64, align 8
  %6 = alloca i32, align 4
  %7 = alloca i32, align 4
  %8 = alloca i64, align 8
  store ptr %0, ptr %3, align 8
  store i32 %1, ptr %4, align 4
  call void @llvm.lifetime.start.p0(i64 8, ptr %5) #6
  call void @llvm.lifetime.start.p0(i64 4, ptr %6) #6
  store volatile i32 0, ptr @alarm_enabled, align 4
  %9 = call i64 @GetCurrentTimestamp()
  store i64 %9, ptr %5, align 8
  store i32 0, ptr %6, align 4
  br label %10

10:                                               ; preds = %88, %2
  %11 = load i32, ptr %6, align 4
  %12 = load i32, ptr %4, align 4
  %13 = icmp slt i32 %11, %12
  br i1 %13, label %14, label %91

14:                                               ; preds = %10
  call void @llvm.lifetime.start.p0(i64 4, ptr %7) #6
  %15 = load ptr, ptr %3, align 8
  %16 = load i32, ptr %6, align 4
  %17 = sext i32 %16 to i64
  %18 = getelementptr inbounds %struct.EnableTimeoutParams, ptr %15, i64 %17
  %19 = getelementptr inbounds nuw %struct.EnableTimeoutParams, ptr %18, i32 0, i32 0
  %20 = load i32, ptr %19, align 8
  store i32 %20, ptr %7, align 4
  call void @llvm.lifetime.start.p0(i64 8, ptr %8) #6
  %21 = load ptr, ptr %3, align 8
  %22 = load i32, ptr %6, align 4
  %23 = sext i32 %22 to i64
  %24 = getelementptr inbounds %struct.EnableTimeoutParams, ptr %21, i64 %23
  %25 = getelementptr inbounds nuw %struct.EnableTimeoutParams, ptr %24, i32 0, i32 1
  %26 = load i32, ptr %25, align 4
  switch i32 %26, label %70 [
    i32 0, label %27
    i32 1, label %41
    i32 2, label %50
  ]

27:                                               ; preds = %14
  %28 = load i64, ptr %5, align 8
  %29 = load ptr, ptr %3, align 8
  %30 = load i32, ptr %6, align 4
  %31 = sext i32 %30 to i64
  %32 = getelementptr inbounds %struct.EnableTimeoutParams, ptr %29, i64 %31
  %33 = getelementptr inbounds nuw %struct.EnableTimeoutParams, ptr %32, i32 0, i32 2
  %34 = load i32, ptr %33, align 8
  %35 = sext i32 %34 to i64
  %36 = mul i64 %35, 1000
  %37 = add i64 %28, %36
  store i64 %37, ptr %8, align 8
  %38 = load i32, ptr %7, align 4
  %39 = load i64, ptr %5, align 8
  %40 = load i64, ptr %8, align 8
  call void @enable_timeout(i32 noundef %38, i64 noundef %39, i64 noundef %40, i32 noundef 0)
  br label %87

41:                                               ; preds = %14
  %42 = load i32, ptr %7, align 4
  %43 = load i64, ptr %5, align 8
  %44 = load ptr, ptr %3, align 8
  %45 = load i32, ptr %6, align 4
  %46 = sext i32 %45 to i64
  %47 = getelementptr inbounds %struct.EnableTimeoutParams, ptr %44, i64 %46
  %48 = getelementptr inbounds nuw %struct.EnableTimeoutParams, ptr %47, i32 0, i32 3
  %49 = load i64, ptr %48, align 8
  call void @enable_timeout(i32 noundef %42, i64 noundef %43, i64 noundef %49, i32 noundef 0)
  br label %87

50:                                               ; preds = %14
  %51 = load i64, ptr %5, align 8
  %52 = load ptr, ptr %3, align 8
  %53 = load i32, ptr %6, align 4
  %54 = sext i32 %53 to i64
  %55 = getelementptr inbounds %struct.EnableTimeoutParams, ptr %52, i64 %54
  %56 = getelementptr inbounds nuw %struct.EnableTimeoutParams, ptr %55, i32 0, i32 2
  %57 = load i32, ptr %56, align 8
  %58 = sext i32 %57 to i64
  %59 = mul i64 %58, 1000
  %60 = add i64 %51, %59
  store i64 %60, ptr %8, align 8
  %61 = load i32, ptr %7, align 4
  %62 = load i64, ptr %5, align 8
  %63 = load i64, ptr %8, align 8
  %64 = load ptr, ptr %3, align 8
  %65 = load i32, ptr %6, align 4
  %66 = sext i32 %65 to i64
  %67 = getelementptr inbounds %struct.EnableTimeoutParams, ptr %64, i64 %66
  %68 = getelementptr inbounds nuw %struct.EnableTimeoutParams, ptr %67, i32 0, i32 2
  %69 = load i32, ptr %68, align 8
  call void @enable_timeout(i32 noundef %61, i64 noundef %62, i64 noundef %63, i32 noundef %69)
  br label %87

70:                                               ; preds = %14
  br label %71

71:                                               ; preds = %70
  br i1 true, label %72, label %74

72:                                               ; preds = %71
  %73 = call zeroext i1 @errstart_cold(i32 noundef 21, ptr noundef null) #7
  br i1 %73, label %76, label %84

74:                                               ; preds = %71
  %75 = call zeroext i1 @errstart(i32 noundef 21, ptr noundef null)
  br i1 %75, label %76, label %84

76:                                               ; preds = %74, %72
  %77 = load ptr, ptr %3, align 8
  %78 = load i32, ptr %6, align 4
  %79 = sext i32 %78 to i64
  %80 = getelementptr inbounds %struct.EnableTimeoutParams, ptr %77, i64 %79
  %81 = getelementptr inbounds nuw %struct.EnableTimeoutParams, ptr %80, i32 0, i32 1
  %82 = load i32, ptr %81, align 4
  %83 = call i32 (ptr, ...) @errmsg_internal(ptr noundef @.str.2, i32 noundef %82)
  call void @errfinish(ptr noundef @.str.1, i32 noundef 666, ptr noundef @__func__.enable_timeouts)
  br label %84

84:                                               ; preds = %76, %74, %72
  unreachable

85:                                               ; No predecessors!
  br label %86

86:                                               ; preds = %85
  br label %87

87:                                               ; preds = %86, %50, %41, %27
  call void @llvm.lifetime.end.p0(i64 8, ptr %8) #6
  call void @llvm.lifetime.end.p0(i64 4, ptr %7) #6
  br label %88

88:                                               ; preds = %87
  %89 = load i32, ptr %6, align 4
  %90 = add i32 %89, 1
  store i32 %90, ptr %6, align 4
  br label %10, !llvm.loop !12

91:                                               ; preds = %10
  %92 = load i64, ptr %5, align 8
  call void @schedule_alarm(i64 noundef %92)
  call void @llvm.lifetime.end.p0(i64 4, ptr %6) #6
  call void @llvm.lifetime.end.p0(i64 8, ptr %5) #6
  ret void
}