; Function Attrs: nounwind uwtable
define dso_local void @enable_timeouts(ptr noundef readonly captures(none) %0, i32 noundef %1) local_unnamed_addr #0 {
  store volatile i32 0, ptr @alarm_enabled, align 4
  %3 = tail call i64 @GetCurrentTimestamp() #10
  %4 = icmp sgt i32 %1, 0
  br i1 %4, label %.lr.ph.preheader, label %._crit_edge

.lr.ph.preheader:                                 ; preds = %2
  %wide.trip.count = zext nneg i32 %1 to i64
  br label %.lr.ph

.lr.ph:                                           ; preds = %.lr.ph.preheader, %29
  %indvars.iv = phi i64 [ 0, %.lr.ph.preheader ], [ %indvars.iv.next, %29 ]
  %5 = getelementptr inbounds nuw %struct.EnableTimeoutParams, ptr %0, i64 %indvars.iv
  %6 = load i32, ptr %5, align 8
  %7 = getelementptr inbounds nuw i8, ptr %5, i64 4
  %8 = load i32, ptr %7, align 4
  switch i32 %8, label %24 [
    i32 0, label %9
    i32 1, label %15
    i32 2, label %18
  ]

9:                                                ; preds = %.lr.ph
  %10 = getelementptr inbounds nuw i8, ptr %5, i64 8
  %11 = load i32, ptr %10, align 8
  %12 = sext i32 %11 to i64
  %13 = mul nsw i64 %12, 1000
  %14 = add i64 %13, %3
  tail call fastcc void @enable_timeout(i32 noundef %6, i64 noundef %3, i64 noundef %14, i32 noundef 0)
  br label %29

15:                                               ; preds = %.lr.ph
  %16 = getelementptr inbounds nuw i8, ptr %5, i64 16
  %17 = load i64, ptr %16, align 8
  tail call fastcc void @enable_timeout(i32 noundef %6, i64 noundef %3, i64 noundef %17, i32 noundef 0)
  br label %29

18:                                               ; preds = %.lr.ph
  %19 = getelementptr inbounds nuw i8, ptr %5, i64 8
  %20 = load i32, ptr %19, align 8
  %21 = sext i32 %20 to i64
  %22 = mul nsw i64 %21, 1000
  %23 = add i64 %22, %3
  tail call fastcc void @enable_timeout(i32 noundef %6, i64 noundef %3, i64 noundef %23, i32 noundef %20)
  br label %29

24:                                               ; preds = %.lr.ph
  %25 = getelementptr inbounds nuw i8, ptr %5, i64 4
  %26 = tail call zeroext i1 @errstart_cold(i32 noundef 21, ptr noundef null) #11
  tail call void @llvm.assume(i1 %26)
  %27 = load i32, ptr %25, align 4
  %28 = tail call i32 (ptr, ...) @errmsg_internal(ptr noundef nonnull @.str.2, i32 noundef %27) #10
  tail call void @errfinish(ptr noundef nonnull @.str.1, i32 noundef 666, ptr noundef nonnull @__func__.enable_timeouts) #10
  unreachable

29:                                               ; preds = %18, %15, %9
  %indvars.iv.next = add nuw nsw i64 %indvars.iv, 1
  %exitcond.not = icmp eq i64 %indvars.iv.next, %wide.trip.count
  br i1 %exitcond.not, label %._crit_edge, label %.lr.ph, !llvm.loop !14

._crit_edge:                                      ; preds = %29, %2
  tail call fastcc void @schedule_alarm(i64 noundef %3)
  ret void
}